target datalayout = "e-m:e-p270:32:32-p271:32:32-p272:64:64-i64:64-i128:128-f80:128-n8:16:32:64-S128"
target triple = "x86_64-unknown-linux-gnu"

%"struct.EA::Thread::ThreadTime" = type { %struct.timespec }
%struct.timespec = type { i64, i64 }
%"class.EA::Thread::AtomicInt" = type { %"struct.std::atomic" }
%"struct.std::atomic" = type { %"struct.std::__atomic_base" }
%"struct.std::__atomic_base" = type { i32 }
%"class.EA::StdC::CallbackManager::CallbackVector" = type { ptr, ptr, ptr, [8 x ptr] }
%"class.EA::StdC::CallbackManager" = type { %"class.EA::StdC::ICallbackManager", %"class.EA::StdC::CallbackManager::CallbackVector", %"class.EA::StdC::Stopwatch", %"class.EA::Thread::AtomicInt.0", %"class.EA::Thread::AtomicInt.0", i8, i8, i8, %"class.EA::StdC::RandomLinearCongruential", double, i64, i64, i64, i64, %"class.EA::Thread::Mutex", %"class.EA::Thread::Thread", %"class.EA::Thread::AtomicInt", [4 x i8], %"struct.EA::Thread::ThreadParameters" }
%"class.EA::StdC::ICallbackManager" = type { ptr }
%"class.EA::StdC::Stopwatch" = type { i64, i64, i32, float }
%"class.EA::Thread::AtomicInt.0" = type { %"struct.std::atomic.1" }
%"struct.std::atomic.1" = type { %"struct.std::__atomic_base.2" }
%"struct.std::__atomic_base.2" = type { i64 }
%"class.EA::StdC::RandomLinearCongruential" = type { i32 }
%"class.EA::Thread::Mutex" = type { %struct.EAMutexData }
%struct.EAMutexData = type <{ %union.pthread_mutex_t, i32, [4 x i8] }>
%union.pthread_mutex_t = type { %struct.__pthread_mutex_s }
%struct.__pthread_mutex_s = type { i32, i32, i32, i32, i32, i16, i16, %struct.__pthread_internal_list }
%struct.__pthread_internal_list = type { ptr, ptr }
%"class.EA::Thread::Thread" = type { %struct.EAThreadData }
%struct.EAThreadData = type { ptr }
%"struct.EA::Thread::ThreadParameters" = type <{ ptr, i64, i32, i32, ptr, i64, i8, [7 x i8] }>

@_ZN2EA6ThreadL13kTimeoutYieldE = internal global %"struct.EA::Thread::ThreadTime" zeroinitializer, align 8

; Function Attrs: mustprogress nounwind uwtable
define linkonce_odr dso_local void @_ZN2EA6Thread10ThreadTimeC2ERKl(ptr noundef nonnull align 8 dereferenceable(16) %this, ptr noundef nonnull align 8 dereferenceable(8) %nMilliseconds) unnamed_addr #1 comdat align 2 {
entry:
  %this.addr = alloca ptr, align 8
  %nMilliseconds.addr = alloca ptr, align 8
  store ptr %this, ptr %this.addr, align 8
  store ptr %nMilliseconds, ptr %nMilliseconds.addr, align 8
  %this1 = load ptr, ptr %this.addr, align 8
  %0 = load ptr, ptr %nMilliseconds.addr, align 8
  %1 = load i64, ptr %0, align 8
  %div = sdiv i64 %1, 1000
  %tv_sec = getelementptr inbounds %struct.timespec, ptr %this1, i32 0, i32 0
  store i64 %div, ptr %tv_sec, align 8
  %2 = load ptr, ptr %nMilliseconds.addr, align 8
  %3 = load i64, ptr %2, align 8
  %tv_sec2 = getelementptr inbounds %struct.timespec, ptr %this1, i32 0, i32 0
  %4 = load i64, ptr %tv_sec2, align 8
  %mul = mul nsw i64 %4, 1000
  %sub = sub nsw i64 %3, %mul
  %mul3 = mul nsw i64 %sub, 1000000
  %tv_nsec = getelementptr inbounds %struct.timespec, ptr %this1, i32 0, i32 1
  store i64 %mul3, ptr %tv_nsec, align 8
  ret void
}

; Function Attrs: mustprogress nounwind uwtable
define linkonce_odr dso_local noundef i64 @_ZN2EA4StdC4sminIlEEKT_RS3_S4_(ptr noundef nonnull align 8 dereferenceable(8) %a, ptr noundef nonnull align 8 dereferenceable(8) %b) #1 comdat {
entry:
  %a.addr = alloca ptr, align 8
  %b.addr = alloca ptr, align 8
  store ptr %a, ptr %a.addr, align 8
  store ptr %b, ptr %b.addr, align 8
  %0 = load ptr, ptr %a.addr, align 8
  %1 = load i64, ptr %0, align 8
  %2 = load ptr, ptr %b.addr, align 8
  %3 = load i64, ptr %2, align 8
  %cmp = icmp slt i64 %1, %3
  br i1 %cmp, label %cond.true, label %cond.false

cond.true:                                        ; preds = %entry
  %4 = load ptr, ptr %a.addr, align 8
  %5 = load i64, ptr %4, align 8
  br label %cond.end

cond.false:                                       ; preds = %entry
  %6 = load ptr, ptr %b.addr, align 8
  %7 = load i64, ptr %6, align 8
  br label %cond.end

cond.end:                                         ; preds = %cond.false, %cond.true
  %cond = phi i64 [ %5, %cond.true ], [ %7, %cond.false ]
  ret i64 %cond
}

; Function Attrs: mustprogress nounwind uwtable
define linkonce_odr dso_local noundef zeroext i1 @_ZNK2EA4StdC15CallbackManager14CallbackVector5emptyEv(ptr noundef nonnull align 8 dereferenceable(88) %this) #1 comdat align 2 {
entry:
  %this.addr = alloca ptr, align 8
  store ptr %this, ptr %this.addr, align 8
  %this1 = load ptr, ptr %this.addr, align 8
  %mpBegin = getelementptr inbounds %"class.EA::StdC::CallbackManager::CallbackVector", ptr %this1, i32 0, i32 0
  %0 = load ptr, ptr %mpBegin, align 8
  %mpEnd = getelementptr inbounds %"class.EA::StdC::CallbackManager::CallbackVector", ptr %this1, i32 0, i32 1
  %1 = load ptr, ptr %mpEnd, align 8
  %cmp = icmp eq ptr %0, %1
  ret i1 %cmp
}

; Function Attrs: mustprogress uwtable
define dso_local noundef i64 @_ZN2EA4StdC15CallbackManager3RunEv(ptr noundef nonnull align 8 dereferenceable(296) %this) #2 align 2 {
entry:
  %this.addr = alloca ptr, align 8
  %curTick = alloca i64, align 8
  %curTime = alloca i64, align 8
  %curUserEvent = alloca i64, align 8
  %kNSecPerTickFrequency = alloca i64, align 8
  %timeToNextEventMs = alloca i64, align 8
  %timeDelta = alloca i64, align 8
  %tickDelta = alloca i64, align 8
  %minDelta = alloca i64, align 8
  %ref.tmp = alloca %"struct.EA::Thread::ThreadTime", align 8
  store ptr %this, ptr %this.addr, align 8
  %this1 = load ptr, ptr %this.addr, align 8
  br label %while.cond

while.cond:                                       ; preds = %if.end36, %entry
  %mbRunning = getelementptr inbounds %"class.EA::StdC::CallbackManager", ptr %this1, i32 0, i32 6
  %0 = load volatile i8, ptr %mbRunning, align 1
  %tobool = trunc i8 %0 to i1
  br i1 %tobool, label %while.body, label %while.end

while.body:                                       ; preds = %while.cond
  call void @_ZN2EA4StdC15CallbackManager14UpdateInternalERlS2_S2_(ptr noundef nonnull align 8 dereferenceable(296) %this1, ptr noundef nonnull align 8 dereferenceable(8) %curTick, ptr noundef nonnull align 8 dereferenceable(8) %curTime, ptr noundef nonnull align 8 dereferenceable(8) %curUserEvent)
  store i64 50000000, ptr %kNSecPerTickFrequency, align 8
  %1 = load i64, ptr %curTime, align 8
  %mNSecPerTickLastTimeMeasured = getelementptr inbounds %"class.EA::StdC::CallbackManager", ptr %this1, i32 0, i32 10
  %2 = load i64, ptr %mNSecPerTickLastTimeMeasured, align 8
  %add = add nsw i64 %2, 50000000
  %cmp = icmp sgt i64 %1, %add
  br i1 %cmp, label %if.then, label %if.end

if.then:                                          ; preds = %while.body
  %3 = load i64, ptr %curTime, align 8
  %conv = sitofp i64 %3 to double
  %mNSecPerTickLastTimeMeasured2 = getelementptr inbounds %"class.EA::StdC::CallbackManager", ptr %this1, i32 0, i32 10
  %4 = load i64, ptr %mNSecPerTickLastTimeMeasured2, align 8
  %conv3 = sitofp i64 %4 to double
  %sub = fsub double %conv, %conv3
  %5 = load i64, ptr %curTick, align 8
  %conv4 = sitofp i64 %5 to double
  %mNSecPerTickLastTickMeasured = getelementptr inbounds %"class.EA::StdC::CallbackManager", ptr %this1, i32 0, i32 11
  %6 = load i64, ptr %mNSecPerTickLastTickMeasured, align 8
  %conv5 = sitofp i64 %6 to double
  %sub6 = fsub double %conv4, %conv5
  %div = fdiv double %sub, %sub6
  %mNSecPerTick = getelementptr inbounds %"class.EA::StdC::CallbackManager", ptr %this1, i32 0, i32 9
  store double %div, ptr %mNSecPerTick, align 8
  %7 = load i64, ptr %curTime, align 8
  %mNSecPerTickLastTimeMeasured7 = getelementptr inbounds %"class.EA::StdC::CallbackManager", ptr %this1, i32 0, i32 10
  store i64 %7, ptr %mNSecPerTickLastTimeMeasured7, align 8
  %8 = load i64, ptr %curTick, align 8
  %mNSecPerTickLastTickMeasured8 = getelementptr inbounds %"class.EA::StdC::CallbackManager", ptr %this1, i32 0, i32 11
  store i64 %8, ptr %mNSecPerTickLastTickMeasured8, align 8
  br label %if.end

if.end:                                           ; preds = %if.then, %while.body
  store i64 50, ptr %timeToNextEventMs, align 8
  %mCallbackArray = getelementptr inbounds %"class.EA::StdC::CallbackManager", ptr %this1, i32 0, i32 1
  %call = call noundef zeroext i1 @_ZNK2EA4StdC15CallbackManager14CallbackVector5emptyEv(ptr noundef nonnull align 8 dereferenceable(88) %mCallbackArray)
  br i1 %call, label %if.end33, label %if.then9

if.then9:                                         ; preds = %if.end
  %mNextCallbackEventTime = getelementptr inbounds %"class.EA::StdC::CallbackManager", ptr %this1, i32 0, i32 12
  %9 = load i64, ptr %mNextCallbackEventTime, align 8
  %10 = load i64, ptr %curTime, align 8
  %cmp10 = icmp slt i64 %9, %10
  br i1 %cmp10, label %if.then11, label %if.end14

if.then11:                                        ; preds = %if.then9
  %11 = load i64, ptr %curTime, align 8
  %add12 = add nsw i64 %11, 100000000
  %mNextCallbackEventTime13 = getelementptr inbounds %"class.EA::StdC::CallbackManager", ptr %this1, i32 0, i32 12
  store i64 %add12, ptr %mNextCallbackEventTime13, align 8
  br label %if.end14

if.end14:                                         ; preds = %if.then11, %if.then9
  %mNextCallbackEventTick = getelementptr inbounds %"class.EA::StdC::CallbackManager", ptr %this1, i32 0, i32 13
  %12 = load i64, ptr %mNextCallbackEventTick, align 8
  %13 = load i64, ptr %curTick, align 8
  %cmp15 = icmp slt i64 %12, %13
  br i1 %cmp15, label %if.then16, label %if.end19

if.then16:                                        ; preds = %if.end14
  %14 = load i64, ptr %curTick, align 8
  %add17 = add nsw i64 %14, 1000
  %mNextCallbackEventTick18 = getelementptr inbounds %"class.EA::StdC::CallbackManager", ptr %this1, i32 0, i32 13
  store i64 %add17, ptr %mNextCallbackEventTick18, align 8
  br label %if.end19

if.end19:                                         ; preds = %if.then16, %if.end14
  %mNextCallbackEventTime20 = getelementptr inbounds %"class.EA::StdC::CallbackManager", ptr %this1, i32 0, i32 12
  %15 = load i64, ptr %mNextCallbackEventTime20, align 8
  %16 = load i64, ptr %curTime, align 8
  %sub21 = sub nsw i64 %15, %16
  store i64 %sub21, ptr %timeDelta, align 8
  %mNextCallbackEventTick22 = getelementptr inbounds %"class.EA::StdC::CallbackManager", ptr %this1, i32 0, i32 13
  %17 = load i64, ptr %mNextCallbackEventTick22, align 8
  %18 = load i64, ptr %curTick, align 8
  %sub23 = sub nsw i64 %17, %18
  %conv24 = sitofp i64 %sub23 to double
  %mNSecPerTick25 = getelementptr inbounds %"class.EA::StdC::CallbackManager", ptr %this1, i32 0, i32 9
  %19 = load double, ptr %mNSecPerTick25, align 8
  %mul = fmul double %conv24, %19
  %conv26 = fptosi double %mul to i64
  store i64 %conv26, ptr %tickDelta, align 8
  %call27 = call noundef i64 @_ZN2EA4StdC4sminIlEEKT_RS3_S4_(ptr noundef nonnull align 8 dereferenceable(8) %timeDelta, ptr noundef nonnull align 8 dereferenceable(8) %tickDelta)
  store i64 %call27, ptr %minDelta, align 8
  %20 = load i64, ptr %minDelta, align 8
  %div28 = sdiv i64 %20, 1000000
  %div29 = sdiv i64 %div28, 2
  store i64 %div29, ptr %timeToNextEventMs, align 8
  %21 = load i64, ptr %timeToNextEventMs, align 8
  %cmp30 = icmp slt i64 %21, 0
  br i1 %cmp30, label %if.then31, label %if.end32

if.then31:                                        ; preds = %if.end19
  store i64 0, ptr %timeToNextEventMs, align 8
  br label %if.end32

if.end32:                                         ; preds = %if.then31, %if.end19
  br label %if.end33

if.end33:                                         ; preds = %if.end32, %if.end
  %22 = load i64, ptr %timeToNextEventMs, align 8
  %cmp34 = icmp eq i64 %22, 0
  br i1 %cmp34, label %if.then35, label %if.else

if.then35:                                        ; preds = %if.end33
  call void @_ZN2EA6Thread11ThreadSleepERKNS0_10ThreadTimeE(ptr noundef nonnull align 8 dereferenceable(16) @_ZN2EA6ThreadL13kTimeoutYieldE)
  br label %if.end36

if.else:                                          ; preds = %if.end33
  call void @_ZN2EA6Thread10ThreadTimeC2ERKl(ptr noundef nonnull align 8 dereferenceable(16) %ref.tmp, ptr noundef nonnull align 8 dereferenceable(8) %timeToNextEventMs)
  call void @_ZN2EA6Thread11ThreadSleepERKNS0_10ThreadTimeE(ptr noundef nonnull align 8 dereferenceable(16) %ref.tmp)
  br label %if.end36

if.end36:                                         ; preds = %if.else, %if.then35
  br label %while.cond, !llvm.loop !8

while.end:                                        ; preds = %while.cond
  ret i64 0
}