; Function Attrs: mustprogress uwtable
define dso_local noundef i64 @_ZN2EA4StdC15CallbackManager3RunEv(ptr noundef nonnull align 8 dereferenceable(296) %this) local_unnamed_addr #1 align 2 {
entry:
  %curTick = alloca i64, align 8
  %curTime = alloca i64, align 8
  %curUserEvent = alloca i64, align 8
  %ref.tmp = alloca %"struct.EA::Thread::ThreadTime", align 8
  %mbRunning = getelementptr inbounds i8, ptr %this, i64 137
  %0 = load volatile i8, ptr %mbRunning, align 1
  %1 = and i8 %0, 1
  %tobool.not9 = icmp eq i8 %1, 0
  br i1 %tobool.not9, label %while.end, label %while.body.lr.ph

while.body.lr.ph:                                 ; preds = %entry
  %mNSecPerTickLastTimeMeasured = getelementptr inbounds i8, ptr %this, i64 152
  %mNSecPerTickLastTickMeasured = getelementptr inbounds i8, ptr %this, i64 160
  %mNSecPerTick = getelementptr inbounds i8, ptr %this, i64 144
  %mCallbackArray = getelementptr inbounds i8, ptr %this, i64 8
  %mpEnd.i = getelementptr inbounds i8, ptr %this, i64 16
  %mNextCallbackEventTime = getelementptr inbounds i8, ptr %this, i64 168
  %mNextCallbackEventTick = getelementptr inbounds i8, ptr %this, i64 176
  %tv_nsec.i = getelementptr inbounds i8, ptr %ref.tmp, i64 8
  br label %while.body

while.body:                                       ; preds = %while.body.lr.ph, %if.end36
  call void @_ZN2EA4StdC15CallbackManager14UpdateInternalERlS2_S2_(ptr noundef nonnull align 8 dereferenceable(296) %this, ptr noundef nonnull align 8 dereferenceable(8) %curTick, ptr noundef nonnull align 8 dereferenceable(8) %curTime, ptr noundef nonnull align 8 dereferenceable(8) %curUserEvent)
  %2 = load i64, ptr %curTime, align 8
  %3 = load i64, ptr %mNSecPerTickLastTimeMeasured, align 8
  %add = add nsw i64 %3, 50000000
  %cmp = icmp sgt i64 %2, %add
  br i1 %cmp, label %if.then, label %if.end

if.then:                                          ; preds = %while.body
  %conv = sitofp i64 %2 to double
  %conv3 = sitofp i64 %3 to double
  %sub = fsub double %conv, %conv3
  %4 = load i64, ptr %curTick, align 8
  %conv4 = sitofp i64 %4 to double
  %5 = load i64, ptr %mNSecPerTickLastTickMeasured, align 8
  %conv5 = sitofp i64 %5 to double
  %sub6 = fsub double %conv4, %conv5
  %div = fdiv double %sub, %sub6
  store double %div, ptr %mNSecPerTick, align 8
  store i64 %2, ptr %mNSecPerTickLastTimeMeasured, align 8
  store i64 %4, ptr %mNSecPerTickLastTickMeasured, align 8
  br label %if.end

if.end:                                           ; preds = %if.then, %while.body
  %6 = load ptr, ptr %mCallbackArray, align 8
  %7 = load ptr, ptr %mpEnd.i, align 8
  %cmp.i = icmp eq ptr %6, %7
  br i1 %cmp.i, label %if.else, label %if.then9

if.then9:                                         ; preds = %if.end
  %8 = load i64, ptr %mNextCallbackEventTime, align 8
  %cmp10 = icmp slt i64 %8, %2
  br i1 %cmp10, label %if.then11, label %if.end14

if.then11:                                        ; preds = %if.then9
  %add12 = add nsw i64 %2, 100000000
  store i64 %add12, ptr %mNextCallbackEventTime, align 8
  br label %if.end14

if.end14:                                         ; preds = %if.then11, %if.then9
  %9 = phi i64 [ %add12, %if.then11 ], [ %8, %if.then9 ]
  %10 = load i64, ptr %mNextCallbackEventTick, align 8
  %11 = load i64, ptr %curTick, align 8
  %cmp15 = icmp slt i64 %10, %11
  br i1 %cmp15, label %if.then16, label %if.end33

if.then16:                                        ; preds = %if.end14
  %add17 = add nsw i64 %11, 1000
  store i64 %add17, ptr %mNextCallbackEventTick, align 8
  br label %if.end33

if.end33:                                         ; preds = %if.end14, %if.then16
  %12 = phi i64 [ %10, %if.end14 ], [ %add17, %if.then16 ]
  %sub21 = sub nsw i64 %9, %2
  %sub23 = sub nsw i64 %12, %11
  %conv24 = sitofp i64 %sub23 to double
  %13 = load double, ptr %mNSecPerTick, align 8
  %mul = fmul double %13, %conv24
  %conv26 = fptosi double %mul to i64
  %..i = call noundef i64 @llvm.smin.i64(i64 %sub21, i64 %conv26)
  %div2910 = udiv i64 %..i, 2000000
  %cmp34 = icmp slt i64 %..i, 2000000
  br i1 %cmp34, label %if.end36, label %if.else

if.else:                                          ; preds = %if.end, %if.end33
  %timeToNextEventMs.07 = phi i64 [ %div2910, %if.end33 ], [ 50, %if.end ]
  %div.i8 = udiv i64 %timeToNextEventMs.07, 1000
  store i64 %div.i8, ptr %ref.tmp, align 8
  %mul.neg.i = mul nsw i64 %div.i8, -1000
  %sub.i = add nsw i64 %mul.neg.i, %timeToNextEventMs.07
  %mul3.i = mul nsw i64 %sub.i, 1000000
  store i64 %mul3.i, ptr %tv_nsec.i, align 8
  br label %if.end36

if.end36:                                         ; preds = %if.end33, %if.else
  %ref.tmp.sink = phi ptr [ %ref.tmp, %if.else ], [ @_ZN2EA6ThreadL13kTimeoutYieldE, %if.end33 ]
  call void @_ZN2EA6Thread11ThreadSleepERKNS0_10ThreadTimeE(ptr noundef nonnull align 8 dereferenceable(16) %ref.tmp.sink)
  %14 = load volatile i8, ptr %mbRunning, align 1
  %15 = and i8 %14, 1
  %tobool.not = icmp eq i8 %15, 0
  br i1 %tobool.not, label %while.end, label %while.body, !llvm.loop !8

while.end:                                        ; preds = %if.end36, %entry
  ret i64 0
}